target datalayout = "e-m:e-p270:32:32-p271:32:32-p272:64:64-i64:64-i128:128-f80:128-n8:16:32:64-S128"
target triple = "x86_64-pc-linux-gnu"

%"class.i18n::phonenumbers::RegexBasedMatcher" = type { %"class.i18n::phonenumbers::MatcherApi", %"class.boost::scoped_ptr", %"class.boost::scoped_ptr.0" }
%"class.i18n::phonenumbers::MatcherApi" = type { ptr }
%"class.boost::scoped_ptr" = type { ptr }
%"class.boost::scoped_ptr.0" = type { ptr }

; Function Attrs: mustprogress uwtable
define dso_local void @_ZN4i18n12phonenumbers34MatcherTest_RegexBasedMatcher_Test8TestBodyEv(ptr noundef nonnull align 8 dereferenceable(16) %0) unnamed_addr #6 align 2 personality ptr @__gxx_personality_v0 {
  %2 = alloca ptr, align 8
  %3 = alloca %"class.i18n::phonenumbers::RegexBasedMatcher", align 8
  %4 = alloca ptr, align 8
  %5 = alloca i32, align 4
  store ptr %0, ptr %2, align 8, !tbaa !31
  %6 = load ptr, ptr %2, align 8
  call void @llvm.lifetime.start.p0(i64 24, ptr %3) #3
  call void @_ZN4i18n12phonenumbers17RegexBasedMatcherC1Ev(ptr noundef nonnull align 8 dereferenceable(24) %3)
  invoke void @_ZNK4i18n12phonenumbers11MatcherTest29CheckMatcherBehavesAsExpectedERKNS0_10MatcherApiE(ptr noundef nonnull align 8 dereferenceable(16) %6, ptr noundef nonnull align 8 dereferenceable(8) %3)
          to label %7 unwind label %8

7:                                                ; preds = %1
  call void @_ZN4i18n12phonenumbers17RegexBasedMatcherD1Ev(ptr noundef nonnull align 8 dereferenceable(24) %3) #3
  call void @llvm.lifetime.end.p0(i64 24, ptr %3) #3
  ret void

8:                                                ; preds = %1
  %9 = landingpad { ptr, i32 }
          cleanup
  %10 = extractvalue { ptr, i32 } %9, 0
  store ptr %10, ptr %4, align 8
  %11 = extractvalue { ptr, i32 } %9, 1
  store i32 %11, ptr %5, align 4
  call void @_ZN4i18n12phonenumbers17RegexBasedMatcherD1Ev(ptr noundef nonnull align 8 dereferenceable(24) %3) #3
  call void @llvm.lifetime.end.p0(i64 24, ptr %3) #3
  br label %12

12:                                               ; preds = %8
  %13 = load ptr, ptr %4, align 8
  %14 = load i32, ptr %5, align 4
  %15 = insertvalue { ptr, i32 } poison, ptr %13, 0
  %16 = insertvalue { ptr, i32 } %15, i32 %14, 1
  resume { ptr, i32 } %16
}