; Function Attrs: mustprogress uwtable
define dso_local void @_ZN4i18n12phonenumbers34MatcherTest_RegexBasedMatcher_Test8TestBodyEv(ptr noundef nonnull align 8 dereferenceable(16) %0) unnamed_addr #4 align 2 personality ptr @__gxx_personality_v0 {
  %2 = alloca %"class.i18n::phonenumbers::RegexBasedMatcher", align 8
  call void @llvm.lifetime.start.p0(i64 24, ptr nonnull %2) #18
  call void @_ZN4i18n12phonenumbers17RegexBasedMatcherC1Ev(ptr noundef nonnull align 8 dereferenceable(24) %2)
  invoke void @_ZNK4i18n12phonenumbers11MatcherTest29CheckMatcherBehavesAsExpectedERKNS0_10MatcherApiE(ptr noundef nonnull align 8 dereferenceable(16) %0, ptr noundef nonnull align 8 dereferenceable(8) %2)
          to label %3 unwind label %4

3:                                                ; preds = %1
  call void @_ZN4i18n12phonenumbers17RegexBasedMatcherD1Ev(ptr noundef nonnull align 8 dereferenceable(24) %2) #18
  call void @llvm.lifetime.end.p0(i64 24, ptr nonnull %2) #18
  ret void

4:                                                ; preds = %1
  %5 = landingpad { ptr, i32 }
          cleanup
  call void @_ZN4i18n12phonenumbers17RegexBasedMatcherD1Ev(ptr noundef nonnull align 8 dereferenceable(24) %2) #18
  call void @llvm.lifetime.end.p0(i64 24, ptr nonnull %2) #18
  resume { ptr, i32 } %5
}